; Function Attrs: nounwind uwtable
define dso_local void @execCommandAbort(ptr noundef %0, ptr noundef %1) local_unnamed_addr #1 {
  %3 = getelementptr inbounds nuw i8, ptr %0, i64 440
  %4 = getelementptr inbounds nuw i8, ptr %0, i64 448
  %5 = load i32, ptr %4, align 8, !tbaa !29
  %6 = icmp sgt i32 %5, 0
  br i1 %6, label %.lr.ph15.i.i, label %discardTransaction.exit

.lr.ph15.i.i:                                     ; preds = %2, %._crit_edge.i.i
  %indvars.iv18.i.i = phi i64 [ %indvars.iv.next19.i.i, %._crit_edge.i.i ], [ 0, %2 ]
  %7 = load ptr, ptr %3, align 8, !tbaa !30
  %8 = getelementptr inbounds nuw %struct.multiCmd, ptr %7, i64 %indvars.iv18.i.i
  %9 = getelementptr inbounds nuw i8, ptr %8, i64 12
  %10 = load i32, ptr %9, align 4, !tbaa !31
  %11 = icmp sgt i32 %10, 0
  br i1 %11, label %.lr.ph.i.i, label %._crit_edge.i.i

.lr.ph.i.i:                                       ; preds = %.lr.ph15.i.i, %.lr.ph.i.i
  %indvars.iv.i.i = phi i64 [ %indvars.iv.next.i.i, %.lr.ph.i.i ], [ 0, %.lr.ph15.i.i ]
  %12 = load ptr, ptr %8, align 8, !tbaa !33
  %13 = getelementptr inbounds nuw ptr, ptr %12, i64 %indvars.iv.i.i
  %14 = load ptr, ptr %13, align 8, !tbaa !34
  tail call void @decrRefCount(ptr noundef %14) #10
  %indvars.iv.next.i.i = add nuw nsw i64 %indvars.iv.i.i, 1
  %15 = load i32, ptr %9, align 4, !tbaa !31
  %16 = sext i32 %15 to i64
  %17 = icmp slt i64 %indvars.iv.next.i.i, %16
  br i1 %17, label %.lr.ph.i.i, label %._crit_edge.i.i, !llvm.loop !35

._crit_edge.i.i:                                  ; preds = %.lr.ph.i.i, %.lr.ph15.i.i
  %18 = load ptr, ptr %8, align 8, !tbaa !33
  tail call void @zfree(ptr noundef %18) #10
  %indvars.iv.next19.i.i = add nuw nsw i64 %indvars.iv18.i.i, 1
  %19 = load i32, ptr %4, align 8, !tbaa !29
  %20 = sext i32 %19 to i64
  %21 = icmp slt i64 %indvars.iv.next19.i.i, %20
  br i1 %21, label %.lr.ph15.i.i, label %discardTransaction.exit, !llvm.loop !37

discardTransaction.exit:                          ; preds = %._crit_edge.i.i, %2
  %22 = load ptr, ptr %3, align 8, !tbaa !30
  tail call void @zfree(ptr noundef %22) #10
  %23 = getelementptr inbounds nuw i8, ptr %0, i64 464
  store i64 0, ptr %23, align 8, !tbaa !5
  %24 = getelementptr inbounds nuw i8, ptr %0, i64 472
  store i32 0, ptr %24, align 8, !tbaa !28
  tail call void @llvm.memset.p0.i64(ptr noundef nonnull align 8 dereferenceable(20) %3, i8 0, i64 20, i1 false)
  %25 = getelementptr inbounds nuw i8, ptr %0, i64 8
  %26 = load i64, ptr %25, align 8, !tbaa !38
  %27 = and i64 %26, -4137
  store i64 %27, ptr %25, align 8, !tbaa !38
  tail call void @unwatchAllKeys(ptr noundef nonnull %0)
  %28 = load i8, ptr %1, align 1, !tbaa !83
  %29 = icmp eq i8 %28, 45
  %spec.select.idx = zext i1 %29 to i64
  %spec.select = getelementptr inbounds nuw i8, ptr %1, i64 %spec.select.idx
  tail call void (ptr, ptr, ...) @addReplyErrorFormat(ptr noundef nonnull %0, ptr noundef nonnull @.str.2, ptr noundef nonnull %spec.select) #10
  %30 = load ptr, ptr getelementptr inbounds nuw (i8, ptr @server, i64 1472), align 8, !tbaa !84
  %31 = getelementptr inbounds nuw i8, ptr %0, i64 32
  %32 = load ptr, ptr %31, align 8, !tbaa !85
  %33 = getelementptr inbounds nuw i8, ptr %32, i64 56
  %34 = load i32, ptr %33, align 8, !tbaa !86
  %35 = getelementptr inbounds nuw i8, ptr %0, i64 96
  %36 = load ptr, ptr %35, align 8, !tbaa !42
  %37 = getelementptr inbounds nuw i8, ptr %0, i64 88
  %38 = load i32, ptr %37, align 8, !tbaa !41
  tail call void @replicationFeedMonitors(ptr noundef nonnull %0, ptr noundef %30, i32 noundef %34, ptr noundef %36, i32 noundef %38) #10
  ret void
}